; ModuleID = '17/4.c'
source_filename = "17/4.c"
target datalayout = "e-m:e-p270:32:32-p271:32:32-p272:64:64-i64:64-f80:128-n8:16:32:64-S128"
target triple = "x86_64-pc-linux-gnu"

@.str = private unnamed_addr constant [3 x i8] c"%s\00", align 1

; Function Attrs: noinline nounwind uwtable
define dso_local i32 @main() #0 {
  %1 = alloca i32, align 4
  %2 = alloca [101 x i8], align 16
  %3 = alloca i32, align 4
  %4 = alloca i32, align 4
  %5 = alloca i32, align 4
  store i32 0, i32* %1, align 4
  br label %6

6:                                                ; preds = %0, %132
  %7 = getelementptr inbounds [101 x i8], [101 x i8]* %2, i64 0, i64 0
  %8 = call i32 (i8*, ...) @__isoc99_scanf(i8* getelementptr inbounds ([3 x i8], [3 x i8]* @.str, i64 0, i64 0), i8* %7)
  %9 = icmp eq i32 %8, -1
  br i1 %9, label %10, label %11

10:                                               ; preds = %6
  ret i32 0

11:                                               ; preds = %6
  %12 = getelementptr inbounds [101 x i8], [101 x i8]* %2, i64 0, i64 0
  %13 = call i32 @puts(i8* %12)
  %14 = getelementptr inbounds [101 x i8], [101 x i8]* %2, i64 0, i64 0
  %15 = call i64 @strlen(i8* %14) #3
  %16 = trunc i64 %15 to i32
  store i32 %16, i32* %3, align 4
  store i32 0, i32* %4, align 4
  br label %17

17:                                               ; preds = %49, %11
  %18 = load i32, i32* %4, align 4
  %19 = load i32, i32* %3, align 4
  %20 = icmp slt i32 %18, %19
  br i1 %20, label %21, label %52

21:                                               ; preds = %17
  %22 = load i32, i32* %4, align 4
  %23 = sext i32 %22 to i64
  %24 = getelementptr inbounds [101 x i8], [101 x i8]* %2, i64 0, i64 %23
  %25 = load i8, i8* %24, align 1
  %26 = sext i8 %25 to i32
  %27 = icmp eq i32 %26, 40
  br i1 %27, label %28, label %32

28:                                               ; preds = %21
  %29 = load i32, i32* %4, align 4
  %30 = sext i32 %29 to i64
  %31 = getelementptr inbounds [101 x i8], [101 x i8]* %2, i64 0, i64 %30
  store i8 36, i8* %31, align 1
  br label %48

32:                                               ; preds = %21
  %33 = load i32, i32* %4, align 4
  %34 = sext i32 %33 to i64
  %35 = getelementptr inbounds [101 x i8], [101 x i8]* %2, i64 0, i64 %34
  %36 = load i8, i8* %35, align 1
  %37 = sext i8 %36 to i32
  %38 = icmp eq i32 %37, 41
  br i1 %38, label %39, label %43

39:                                               ; preds = %32
  %40 = load i32, i32* %4, align 4
  %41 = sext i32 %40 to i64
  %42 = getelementptr inbounds [101 x i8], [101 x i8]* %2, i64 0, i64 %41
  store i8 63, i8* %42, align 1
  br label %47

43:                                               ; preds = %32
  %44 = load i32, i32* %4, align 4
  %45 = sext i32 %44 to i64
  %46 = getelementptr inbounds [101 x i8], [101 x i8]* %2, i64 0, i64 %45
  store i8 32, i8* %46, align 1
  br label %47

47:                                               ; preds = %43, %39
  br label %48

48:                                               ; preds = %47, %28
  br label %49

49:                                               ; preds = %48
  %50 = load i32, i32* %4, align 4
  %51 = add nsw i32 %50, 1
  store i32 %51, i32* %4, align 4
  br label %17

52:                                               ; preds = %17
  store i32 0, i32* %4, align 4
  br label %53

53:                                               ; preds = %89, %52
  %54 = load i32, i32* %4, align 4
  %55 = load i32, i32* %3, align 4
  %56 = icmp slt i32 %54, %55
  br i1 %56, label %57, label %92

57:                                               ; preds = %53
  %58 = load i32, i32* %4, align 4
  %59 = sext i32 %58 to i64
  %60 = getelementptr inbounds [101 x i8], [101 x i8]* %2, i64 0, i64 %59
  %61 = load i8, i8* %60, align 1
  %62 = sext i8 %61 to i32
  %63 = icmp eq i32 %62, 63
  br i1 %63, label %64, label %88

64:                                               ; preds = %57
  %65 = load i32, i32* %4, align 4
  store i32 %65, i32* %5, align 4
  br label %66

66:                                               ; preds = %84, %64
  %67 = load i32, i32* %5, align 4
  %68 = icmp sge i32 %67, 0
  br i1 %68, label %69, label %87

69:                                               ; preds = %66
  %70 = load i32, i32* %5, align 4
  %71 = sext i32 %70 to i64
  %72 = getelementptr inbounds [101 x i8], [101 x i8]* %2, i64 0, i64 %71
  %73 = load i8, i8* %72, align 1
  %74 = sext i8 %73 to i32
  %75 = icmp eq i32 %74, 36
  br i1 %75, label %76, label %83

76:                                               ; preds = %69
  %77 = load i32, i32* %5, align 4
  %78 = sext i32 %77 to i64
  %79 = getelementptr inbounds [101 x i8], [101 x i8]* %2, i64 0, i64 %78
  store i8 32, i8* %79, align 1
  %80 = load i32, i32* %4, align 4
  %81 = sext i32 %80 to i64
  %82 = getelementptr inbounds [101 x i8], [101 x i8]* %2, i64 0, i64 %81
  store i8 32, i8* %82, align 1
  br label %87

83:                                               ; preds = %69
  br label %84

84:                                               ; preds = %83
  %85 = load i32, i32* %5, align 4
  %86 = add nsw i32 %85, -1
  store i32 %86, i32* %5, align 4
  br label %66

87:                                               ; preds = %76, %66
  br label %88

88:                                               ; preds = %87, %57
  br label %89

89:                                               ; preds = %88
  %90 = load i32, i32* %4, align 4
  %91 = add nsw i32 %90, 1
  store i32 %91, i32* %4, align 4
  br label %53

92:                                               ; preds = %53
  br label %93

93:                                               ; preds = %101, %92
  %94 = load i32, i32* %3, align 4
  %95 = sub nsw i32 %94, 1
  %96 = sext i32 %95 to i64
  %97 = getelementptr inbounds [101 x i8], [101 x i8]* %2, i64 0, i64 %96
  %98 = load i8, i8* %97, align 1
  %99 = sext i8 %98 to i32
  %100 = icmp eq i32 %99, 32
  br i1 %100, label %101, label %108

101:                                              ; preds = %93
  %102 = load i32, i32* %3, align 4
  %103 = sub nsw i32 %102, 1
  %104 = sext i32 %103 to i64
  %105 = getelementptr inbounds [101 x i8], [101 x i8]* %2, i64 0, i64 %104
  store i8 0, i8* %105, align 1
  %106 = load i32, i32* %3, align 4
  %107 = add nsw i32 %106, -1
  store i32 %107, i32* %3, align 4
  br label %93

108:                                              ; preds = %93
  br label %109

109:                                              ; preds = %131, %108
  %110 = getelementptr inbounds [101 x i8], [101 x i8]* %2, i64 0, i64 0
  %111 = load i8, i8* %110, align 16
  %112 = sext i8 %111 to i32
  %113 = icmp eq i32 %112, 32
  br i1 %113, label %114, label %132

114:                                              ; preds = %109
  store i32 0, i32* %4, align 4
  br label %115

115:                                              ; preds = %128, %114
  %116 = load i32, i32* %4, align 4
  %117 = load i32, i32* %3, align 4
  %118 = icmp slt i32 %116, %117
  br i1 %118, label %119, label %131

119:                                              ; preds = %115
  %120 = load i32, i32* %4, align 4
  %121 = add nsw i32 %120, 1
  %122 = sext i32 %121 to i64
  %123 = getelementptr inbounds [101 x i8], [101 x i8]* %2, i64 0, i64 %122
  %124 = load i8, i8* %123, align 1
  %125 = load i32, i32* %4, align 4
  %126 = sext i32 %125 to i64
  %127 = getelementptr inbounds [101 x i8], [101 x i8]* %2, i64 0, i64 %126
  store i8 %124, i8* %127, align 1
  br label %128

128:                                              ; preds = %119
  %129 = load i32, i32* %4, align 4
  %130 = add nsw i32 %129, 1
  store i32 %130, i32* %4, align 4
  br label %115

131:                                              ; preds = %115
  br label %109

132:                                              ; preds = %109
  %133 = getelementptr inbounds [101 x i8], [101 x i8]* %2, i64 0, i64 0
  %134 = call i32 @puts(i8* %133)
  br label %6
}

declare dso_local i32 @__isoc99_scanf(i8*, ...) #1

declare dso_local i32 @puts(i8*) #1

; Function Attrs: nounwind readonly
declare dso_local i64 @strlen(i8*) #2


!llvm.module.flags = !{!0}
!llvm.ident = !{!1}

!0 = !{i32 1, !"wchar_size", i32 4}
!1 = !{!"clang version 10.0.0-4ubuntu1 "}
